; Function Attrs: nofree norecurse nosync nounwind memory(argmem: read, inaccessiblemem: readwrite) uwtable
define internal i32 @SSE16x8_SSE2(ptr noalias noundef readonly captures(none) %0, ptr noalias noundef readonly captures(none) %1) #6 {
  tail call void @llvm.experimental.noalias.scope.decl(metadata !404)
  tail call void @llvm.experimental.noalias.scope.decl(metadata !407)
  br label %3

3:                                                ; preds = %3, %2
  %.025.i = phi ptr [ %0, %2 ], [ %33, %3 ]
  %.01424.i = phi ptr [ %1, %2 ], [ %34, %3 ]
  %4 = phi <4 x i32> [ zeroinitializer, %2 ], [ %32, %3 ]
  %.01623.i = phi i32 [ 0, %2 ], [ %35, %3 ]
  %5 = load <16 x i8>, ptr %.025.i, align 1, !tbaa !14, !alias.scope !404, !noalias !407
  %6 = load <16 x i8>, ptr %.01424.i, align 1, !tbaa !14, !alias.scope !407, !noalias !404
  %7 = getelementptr inbounds nuw i8, ptr %.025.i, i64 32
  %8 = load <16 x i8>, ptr %7, align 1, !tbaa !14, !alias.scope !404, !noalias !407
  %9 = getelementptr inbounds nuw i8, ptr %.01424.i, i64 32
  %10 = load <16 x i8>, ptr %9, align 1, !tbaa !14, !alias.scope !407, !noalias !404
  %11 = tail call <16 x i8> @llvm.usub.sat.v16i8(<16 x i8> %5, <16 x i8> %6)
  %12 = tail call <16 x i8> @llvm.usub.sat.v16i8(<16 x i8> %6, <16 x i8> %5)
  %13 = or <16 x i8> %11, %12
  %14 = shufflevector <16 x i8> %13, <16 x i8> <i8 0, i8 0, i8 0, i8 0, i8 0, i8 0, i8 0, i8 0, i8 poison, i8 poison, i8 poison, i8 poison, i8 poison, i8 poison, i8 poison, i8 poison>, <16 x i32> <i32 0, i32 16, i32 1, i32 17, i32 2, i32 18, i32 3, i32 19, i32 4, i32 20, i32 5, i32 21, i32 6, i32 22, i32 7, i32 23>
  %15 = shufflevector <16 x i8> %13, <16 x i8> <i8 poison, i8 poison, i8 poison, i8 poison, i8 poison, i8 poison, i8 poison, i8 poison, i8 0, i8 0, i8 0, i8 0, i8 0, i8 0, i8 0, i8 0>, <16 x i32> <i32 8, i32 24, i32 9, i32 25, i32 10, i32 26, i32 11, i32 27, i32 12, i32 28, i32 13, i32 29, i32 14, i32 30, i32 15, i32 31>
  %16 = bitcast <16 x i8> %14 to <8 x i16>
  %17 = tail call <4 x i32> @llvm.x86.sse2.pmadd.wd(<8 x i16> %16, <8 x i16> %16)
  %18 = bitcast <16 x i8> %15 to <8 x i16>
  %19 = tail call <4 x i32> @llvm.x86.sse2.pmadd.wd(<8 x i16> %18, <8 x i16> %18)
  %20 = tail call <16 x i8> @llvm.usub.sat.v16i8(<16 x i8> %8, <16 x i8> %10)
  %21 = tail call <16 x i8> @llvm.usub.sat.v16i8(<16 x i8> %10, <16 x i8> %8)
  %22 = or <16 x i8> %20, %21
  %23 = shufflevector <16 x i8> %22, <16 x i8> <i8 0, i8 0, i8 0, i8 0, i8 0, i8 0, i8 0, i8 0, i8 poison, i8 poison, i8 poison, i8 poison, i8 poison, i8 poison, i8 poison, i8 poison>, <16 x i32> <i32 0, i32 16, i32 1, i32 17, i32 2, i32 18, i32 3, i32 19, i32 4, i32 20, i32 5, i32 21, i32 6, i32 22, i32 7, i32 23>
  %24 = shufflevector <16 x i8> %22, <16 x i8> <i8 poison, i8 poison, i8 poison, i8 poison, i8 poison, i8 poison, i8 poison, i8 poison, i8 0, i8 0, i8 0, i8 0, i8 0, i8 0, i8 0, i8 0>, <16 x i32> <i32 8, i32 24, i32 9, i32 25, i32 10, i32 26, i32 11, i32 27, i32 12, i32 28, i32 13, i32 29, i32 14, i32 30, i32 15, i32 31>
  %25 = bitcast <16 x i8> %23 to <8 x i16>
  %26 = tail call <4 x i32> @llvm.x86.sse2.pmadd.wd(<8 x i16> %25, <8 x i16> %25)
  %27 = bitcast <16 x i8> %24 to <8 x i16>
  %28 = tail call <4 x i32> @llvm.x86.sse2.pmadd.wd(<8 x i16> %27, <8 x i16> %27)
  %29 = add <4 x i32> %17, %4
  %30 = add <4 x i32> %29, %19
  %31 = add <4 x i32> %30, %26
  %32 = add <4 x i32> %31, %28
  %33 = getelementptr inbounds nuw i8, ptr %.025.i, i64 64
  %34 = getelementptr inbounds nuw i8, ptr %.01424.i, i64 64
  %35 = add nuw nsw i32 %.01623.i, 1
  %exitcond.not.i = icmp eq i32 %35, 4
  br i1 %exitcond.not.i, label %SSE_16xN_SSE2.exit, label %3, !llvm.loop !403

SSE_16xN_SSE2.exit:                               ; preds = %3
  %36 = shufflevector <4 x i32> %32, <4 x i32> poison, <4 x i32> <i32 3, i32 poison, i32 poison, i32 poison>
  %37 = shufflevector <4 x i32> %32, <4 x i32> poison, <4 x i32> <i32 2, i32 poison, i32 poison, i32 poison>
  %38 = add nsw <4 x i32> %36, %37
  %39 = shufflevector <4 x i32> %32, <4 x i32> poison, <4 x i32> <i32 1, i32 poison, i32 poison, i32 poison>
  %shift3 = add nsw <4 x i32> %38, %39
  %40 = add nsw <4 x i32> %shift3, %32
  %41 = extractelement <4 x i32> %40, i64 0
  ret i32 %41
}